target datalayout = "e-m:e-p270:32:32-p271:32:32-p272:64:64-i64:64-i128:128-f80:128-n8:16:32:64-S128"
target triple = "x86_64-pc-linux-gnu"

%struct.AVRational = type { i32, i32 }
%struct.AVStream = type { ptr, i32, i32, ptr, ptr, %struct.AVRational, i64, i64, i64, i32, i32, %struct.AVRational, ptr, %struct.AVRational, %struct.AVPacket, i32, %struct.AVRational, i32 }
%struct.AVPacket = type { ptr, i64, i64, ptr, i32, i32, i32, ptr, i32, i64, i64, ptr, ptr, %struct.AVRational }
%struct.FFStream = type { %struct.AVStream, ptr, i32, ptr, i32, ptr, i32, %struct.anon, i32, i32, %struct.FFFrac, ptr, ptr, i32, i32, i64, i64, i32, i32, i32, i64, i64, i64, i32, i64, i64, i64, i32, i32, [17 x i64], [17 x i8], [17 x i64], i64, i8, i8, %struct.AVRational, %struct.AVProbeData, ptr, i64, i32, i32, i32, ptr, i32, i32, i64, i64, ptr, %struct.AVRational }
%struct.anon = type { ptr, i32 }
%struct.FFFrac = type { i64, i64, i64 }
%struct.AVProbeData = type { ptr, ptr, i32, ptr }
%struct.FFStreamInfo = type { i64, i64, i32, i64, ptr, i64, i64, i32, i32, i64, i64, i32, i64, i32 }

; Function Attrs: alwaysinline nounwind uwtable
define internal ptr @ffstream(ptr noundef %0) #2 {
  %2 = alloca ptr, align 8
  store ptr %0, ptr %2, align 8, !tbaa !10
  %3 = load ptr, ptr %2, align 8, !tbaa !10
  ret ptr %3
}

; Function Attrs: nounwind uwtable
define void @ff_free_stream(ptr noundef %0) #0 {
  %2 = alloca ptr, align 8
  %3 = alloca ptr, align 8
  %4 = alloca ptr, align 8
  %5 = alloca i32, align 4
  store ptr %0, ptr %2, align 8, !tbaa !4
  call void @llvm.lifetime.start.p0(i64 8, ptr %3) #11
  %6 = load ptr, ptr %2, align 8, !tbaa !4
  %7 = load ptr, ptr %6, align 8, !tbaa !10
  store ptr %7, ptr %3, align 8, !tbaa !10
  call void @llvm.lifetime.start.p0(i64 8, ptr %4) #11
  %8 = load ptr, ptr %3, align 8, !tbaa !10
  %9 = call ptr @ffstream(ptr noundef %8)
  store ptr %9, ptr %4, align 8, !tbaa !12
  %10 = load ptr, ptr %3, align 8, !tbaa !10
  %11 = icmp ne ptr %10, null
  br i1 %11, label %13, label %12

12:                                               ; preds = %1
  store i32 1, ptr %5, align 4
  br label %57

13:                                               ; preds = %1
  %14 = load ptr, ptr %3, align 8, !tbaa !10
  %15 = getelementptr inbounds nuw %struct.AVStream, ptr %14, i32 0, i32 14
  %16 = getelementptr inbounds nuw %struct.AVPacket, ptr %15, i32 0, i32 3
  %17 = load ptr, ptr %16, align 8, !tbaa !14
  %18 = icmp ne ptr %17, null
  br i1 %18, label %19, label %22

19:                                               ; preds = %13
  %20 = load ptr, ptr %3, align 8, !tbaa !10
  %21 = getelementptr inbounds nuw %struct.AVStream, ptr %20, i32 0, i32 14
  call void @av_packet_unref(ptr noundef %21)
  br label %22

22:                                               ; preds = %19, %13
  %23 = load ptr, ptr %4, align 8, !tbaa !12
  %24 = getelementptr inbounds nuw %struct.FFStream, ptr %23, i32 0, i32 42
  %25 = load ptr, ptr %24, align 8, !tbaa !26
  call void @av_parser_close(ptr noundef %25)
  %26 = load ptr, ptr %4, align 8, !tbaa !12
  %27 = getelementptr inbounds nuw %struct.FFStream, ptr %26, i32 0, i32 5
  call void @avcodec_free_context(ptr noundef %27)
  %28 = load ptr, ptr %4, align 8, !tbaa !12
  %29 = getelementptr inbounds nuw %struct.FFStream, ptr %28, i32 0, i32 3
  call void @av_bsf_free(ptr noundef %29)
  %30 = load ptr, ptr %4, align 8, !tbaa !12
  %31 = getelementptr inbounds nuw %struct.FFStream, ptr %30, i32 0, i32 12
  call void @av_freep(ptr noundef %31)
  %32 = load ptr, ptr %4, align 8, !tbaa !12
  %33 = getelementptr inbounds nuw %struct.FFStream, ptr %32, i32 0, i32 36
  %34 = getelementptr inbounds nuw %struct.AVProbeData, ptr %33, i32 0, i32 1
  call void @av_freep(ptr noundef %34)
  %35 = load ptr, ptr %4, align 8, !tbaa !12
  %36 = getelementptr inbounds nuw %struct.FFStream, ptr %35, i32 0, i32 7
  %37 = getelementptr inbounds nuw %struct.anon, ptr %36, i32 0, i32 0
  call void @av_bsf_free(ptr noundef %37)
  %38 = load ptr, ptr %4, align 8, !tbaa !12
  %39 = getelementptr inbounds nuw %struct.FFStream, ptr %38, i32 0, i32 11
  %40 = load ptr, ptr %39, align 8, !tbaa !39
  %41 = icmp ne ptr %40, null
  br i1 %41, label %42, label %49

42:                                               ; preds = %22
  %43 = load ptr, ptr %4, align 8, !tbaa !12
  %44 = getelementptr inbounds nuw %struct.FFStream, ptr %43, i32 0, i32 11
  %45 = load ptr, ptr %44, align 8, !tbaa !39
  %46 = getelementptr inbounds nuw %struct.FFStreamInfo, ptr %45, i32 0, i32 4
  call void @av_freep(ptr noundef %46)
  %47 = load ptr, ptr %4, align 8, !tbaa !12
  %48 = getelementptr inbounds nuw %struct.FFStream, ptr %47, i32 0, i32 11
  call void @av_freep(ptr noundef %48)
  br label %49

49:                                               ; preds = %42, %22
  %50 = load ptr, ptr %3, align 8, !tbaa !10
  %51 = getelementptr inbounds nuw %struct.AVStream, ptr %50, i32 0, i32 12
  call void @av_dict_free(ptr noundef %51)
  %52 = load ptr, ptr %3, align 8, !tbaa !10
  %53 = getelementptr inbounds nuw %struct.AVStream, ptr %52, i32 0, i32 3
  call void @avcodec_parameters_free(ptr noundef %53)
  %54 = load ptr, ptr %3, align 8, !tbaa !10
  %55 = getelementptr inbounds nuw %struct.AVStream, ptr %54, i32 0, i32 4
  call void @av_freep(ptr noundef %55)
  %56 = load ptr, ptr %2, align 8, !tbaa !4
  call void @av_freep(ptr noundef %56)
  store i32 0, ptr %5, align 4
  br label %57

57:                                               ; preds = %49, %12
  call void @llvm.lifetime.end.p0(i64 8, ptr %4) #11
  call void @llvm.lifetime.end.p0(i64 8, ptr %3) #11
  %58 = load i32, ptr %5, align 4
  switch i32 %58, label %60 [
    i32 0, label %59
    i32 1, label %59
  ]

59:                                               ; preds = %57, %57
  ret void

60:                                               ; preds = %57
  unreachable
}