; Function Attrs: nounwind uwtable
define void @ff_free_stream(ptr noundef %0) local_unnamed_addr #0 {
  %2 = load ptr, ptr %0, align 8, !tbaa !4
  %.not = icmp eq ptr %2, null
  br i1 %.not, label %24, label %3

3:                                                ; preds = %1
  %4 = getelementptr inbounds nuw i8, ptr %2, i64 120
  %5 = load ptr, ptr %4, align 8, !tbaa !9
  %.not19 = icmp eq ptr %5, null
  br i1 %.not19, label %8, label %6

6:                                                ; preds = %3
  %7 = getelementptr inbounds nuw i8, ptr %2, i64 96
  tail call void @av_packet_unref(ptr noundef nonnull %7) #13
  br label %8

8:                                                ; preds = %6, %3
  %9 = getelementptr inbounds nuw i8, ptr %2, i64 816
  %10 = load ptr, ptr %9, align 8, !tbaa !21
  tail call void @av_parser_close(ptr noundef %10) #13
  %11 = getelementptr inbounds nuw i8, ptr %2, i64 248
  tail call void @avcodec_free_context(ptr noundef nonnull %11) #13
  %12 = getelementptr inbounds nuw i8, ptr %2, i64 232
  tail call void @av_bsf_free(ptr noundef nonnull %12) #13
  %13 = getelementptr inbounds nuw i8, ptr %2, i64 320
  tail call void @av_freep(ptr noundef nonnull %13) #13
  %14 = getelementptr inbounds nuw i8, ptr %2, i64 760
  tail call void @av_freep(ptr noundef nonnull %14) #13
  %15 = getelementptr inbounds nuw i8, ptr %2, i64 264
  tail call void @av_bsf_free(ptr noundef nonnull %15) #13
  %16 = getelementptr inbounds nuw i8, ptr %2, i64 312
  %17 = load ptr, ptr %16, align 8, !tbaa !34
  %.not20 = icmp eq ptr %17, null
  br i1 %.not20, label %20, label %18

18:                                               ; preds = %8
  %19 = getelementptr inbounds nuw i8, ptr %17, i64 32
  tail call void @av_freep(ptr noundef nonnull %19) #13
  tail call void @av_freep(ptr noundef nonnull %16) #13
  br label %20

20:                                               ; preds = %18, %8
  %21 = getelementptr inbounds nuw i8, ptr %2, i64 80
  tail call void @av_dict_free(ptr noundef nonnull %21) #13
  %22 = getelementptr inbounds nuw i8, ptr %2, i64 16
  tail call void @avcodec_parameters_free(ptr noundef nonnull %22) #13
  %23 = getelementptr inbounds nuw i8, ptr %2, i64 24
  tail call void @av_freep(ptr noundef nonnull %23) #13
  tail call void @av_freep(ptr noundef nonnull %0) #13
  br label %24

24:                                               ; preds = %1, %20
  ret void
}